target datalayout = "e-m:e-p270:32:32-p271:32:32-p272:64:64-i64:64-i128:128-f80:128-n8:16:32:64-S128"
target triple = "x86_64-pc-linux-gnu"

%struct.blake2b_ctx_st = type { [8 x i64], [2 x i64], [2 x i64], [128 x i8], i64, i64 }

; Function Attrs: inlinehint nounwind uwtable
define internal void @store64(ptr noundef %0, i64 noundef %1) #1 {
  %3 = alloca ptr, align 8
  %4 = alloca i64, align 8
  %5 = alloca i32, align 4
  store ptr %0, ptr %3, align 8, !tbaa !15
  store i64 %1, ptr %4, align 8, !tbaa !19
  call void @llvm.lifetime.start.p0(i64 4, ptr %5) #6
  store i32 1, ptr %5, align 4, !tbaa !17
  %6 = load ptr, ptr %3, align 8, !tbaa !15
  call void @llvm.memcpy.p0.p0.i64(ptr align 1 %6, ptr align 8 %4, i64 8, i1 false)
  call void @llvm.lifetime.end.p0(i64 4, ptr %5) #6
  ret void
}

; Function Attrs: inlinehint nounwind uwtable
define internal void @blake2b_set_lastblock(ptr noundef %0) #1 {
  %2 = alloca ptr, align 8
  store ptr %0, ptr %2, align 8, !tbaa !22
  %3 = load ptr, ptr %2, align 8, !tbaa !22
  %4 = getelementptr inbounds nuw %struct.blake2b_ctx_st, ptr %3, i32 0, i32 2
  %5 = getelementptr inbounds [2 x i64], ptr %4, i64 0, i64 0
  store i64 -1, ptr %5, align 8, !tbaa !19
  ret void
}

; Function Attrs: nounwind uwtable
define i32 @ossl_blake2b_final(ptr noundef %0, ptr noundef %1) #0 {
  %3 = alloca ptr, align 8
  %4 = alloca ptr, align 8
  %5 = alloca [64 x i8], align 16
  %6 = alloca ptr, align 8
  %7 = alloca i32, align 4
  %8 = alloca i32, align 4
  store ptr %0, ptr %3, align 8, !tbaa !15
  store ptr %1, ptr %4, align 8, !tbaa !22
  call void @llvm.lifetime.start.p0(i64 64, ptr %5) #6
  call void @llvm.memset.p0.i64(ptr align 16 %5, i8 0, i64 64, i1 false)
  call void @llvm.lifetime.start.p0(i64 8, ptr %6) #6
  %9 = getelementptr inbounds [64 x i8], ptr %5, i64 0, i64 0
  store ptr %9, ptr %6, align 8, !tbaa !15
  call void @llvm.lifetime.start.p0(i64 4, ptr %7) #6
  %10 = load ptr, ptr %4, align 8, !tbaa !22
  %11 = getelementptr inbounds nuw %struct.blake2b_ctx_st, ptr %10, i32 0, i32 5
  %12 = load i64, ptr %11, align 8, !tbaa !24
  %13 = add i64 %12, 7
  %14 = udiv i64 %13, 8
  %15 = trunc i64 %14 to i32
  store i32 %15, ptr %7, align 4, !tbaa !17
  call void @llvm.lifetime.start.p0(i64 4, ptr %8) #6
  %16 = load ptr, ptr %4, align 8, !tbaa !22
  %17 = getelementptr inbounds nuw %struct.blake2b_ctx_st, ptr %16, i32 0, i32 5
  %18 = load i64, ptr %17, align 8, !tbaa !24
  %19 = urem i64 %18, 8
  %20 = icmp eq i64 %19, 0
  br i1 %20, label %21, label %23

21:                                               ; preds = %2
  %22 = load ptr, ptr %3, align 8, !tbaa !15
  store ptr %22, ptr %6, align 8, !tbaa !15
  br label %23

23:                                               ; preds = %21, %2
  %24 = load ptr, ptr %4, align 8, !tbaa !22
  call void @blake2b_set_lastblock(ptr noundef %24)
  %25 = load ptr, ptr %4, align 8, !tbaa !22
  %26 = getelementptr inbounds nuw %struct.blake2b_ctx_st, ptr %25, i32 0, i32 3
  %27 = getelementptr inbounds [128 x i8], ptr %26, i64 0, i64 0
  %28 = load ptr, ptr %4, align 8, !tbaa !22
  %29 = getelementptr inbounds nuw %struct.blake2b_ctx_st, ptr %28, i32 0, i32 4
  %30 = load i64, ptr %29, align 8, !tbaa !29
  %31 = getelementptr inbounds nuw i8, ptr %27, i64 %30
  %32 = load ptr, ptr %4, align 8, !tbaa !22
  %33 = getelementptr inbounds nuw %struct.blake2b_ctx_st, ptr %32, i32 0, i32 4
  %34 = load i64, ptr %33, align 8, !tbaa !29
  %35 = sub i64 128, %34
  call void @llvm.memset.p0.i64(ptr align 1 %31, i8 0, i64 %35, i1 false)
  %36 = load ptr, ptr %4, align 8, !tbaa !22
  %37 = load ptr, ptr %4, align 8, !tbaa !22
  %38 = getelementptr inbounds nuw %struct.blake2b_ctx_st, ptr %37, i32 0, i32 3
  %39 = getelementptr inbounds [128 x i8], ptr %38, i64 0, i64 0
  %40 = load ptr, ptr %4, align 8, !tbaa !22
  %41 = getelementptr inbounds nuw %struct.blake2b_ctx_st, ptr %40, i32 0, i32 4
  %42 = load i64, ptr %41, align 8, !tbaa !29
  call void @blake2b_compress(ptr noundef %36, ptr noundef %39, i64 noundef %42)
  store i32 0, ptr %8, align 4, !tbaa !17
  br label %43

43:                                               ; preds = %59, %23
  %44 = load i32, ptr %8, align 4, !tbaa !17
  %45 = load i32, ptr %7, align 4, !tbaa !17
  %46 = icmp slt i32 %44, %45
  br i1 %46, label %47, label %62

47:                                               ; preds = %43
  %48 = load ptr, ptr %6, align 8, !tbaa !15
  %49 = load i32, ptr %8, align 4, !tbaa !17
  %50 = sext i32 %49 to i64
  %51 = mul i64 8, %50
  %52 = getelementptr inbounds nuw i8, ptr %48, i64 %51
  %53 = load ptr, ptr %4, align 8, !tbaa !22
  %54 = getelementptr inbounds nuw %struct.blake2b_ctx_st, ptr %53, i32 0, i32 0
  %55 = load i32, ptr %8, align 4, !tbaa !17
  %56 = sext i32 %55 to i64
  %57 = getelementptr inbounds [8 x i64], ptr %54, i64 0, i64 %56
  %58 = load i64, ptr %57, align 8, !tbaa !19
  call void @store64(ptr noundef %52, i64 noundef %58)
  br label %59

59:                                               ; preds = %47
  %60 = load i32, ptr %8, align 4, !tbaa !17
  %61 = add nsw i32 %60, 1
  store i32 %61, ptr %8, align 4, !tbaa !17
  br label %43, !llvm.loop !34

62:                                               ; preds = %43
  %63 = load ptr, ptr %6, align 8, !tbaa !15
  %64 = load ptr, ptr %3, align 8, !tbaa !15
  %65 = icmp ne ptr %63, %64
  br i1 %65, label %66, label %73

66:                                               ; preds = %62
  %67 = load ptr, ptr %3, align 8, !tbaa !15
  %68 = load ptr, ptr %6, align 8, !tbaa !15
  %69 = load ptr, ptr %4, align 8, !tbaa !22
  %70 = getelementptr inbounds nuw %struct.blake2b_ctx_st, ptr %69, i32 0, i32 5
  %71 = load i64, ptr %70, align 8, !tbaa !24
  call void @llvm.memcpy.p0.p0.i64(ptr align 1 %67, ptr align 1 %68, i64 %71, i1 false)
  %72 = load ptr, ptr %6, align 8, !tbaa !15
  call void @OPENSSL_cleanse(ptr noundef %72, i64 noundef 64)
  br label %73

73:                                               ; preds = %66, %62
  %74 = load ptr, ptr %4, align 8, !tbaa !22
  call void @OPENSSL_cleanse(ptr noundef %74, i64 noundef 240)
  call void @llvm.lifetime.end.p0(i64 4, ptr %8) #6
  call void @llvm.lifetime.end.p0(i64 4, ptr %7) #6
  call void @llvm.lifetime.end.p0(i64 8, ptr %6) #6
  call void @llvm.lifetime.end.p0(i64 64, ptr %5) #6
  ret i32 1
}