; Function Attrs: nounwind uwtable
define noundef i32 @ossl_blake2b_final(ptr noundef %0, ptr noundef initializes((80, 88)) %1) local_unnamed_addr #5 {
  %3 = alloca [64 x i8], align 16
  call void @llvm.lifetime.start.p0(i64 64, ptr nonnull %3) #9
  call void @llvm.memset.p0.i64(ptr noundef nonnull align 16 dereferenceable(64) %3, i8 0, i64 64, i1 false)
  %4 = getelementptr inbounds nuw i8, ptr %1, i64 232
  %5 = load i64, ptr %4, align 8, !tbaa !12
  %6 = add i64 %5, 7
  %7 = lshr i64 %6, 3
  %8 = trunc i64 %7 to i32
  %9 = and i64 %5, 7
  %10 = icmp eq i64 %9, 0
  %spec.select = select i1 %10, ptr %0, ptr %3
  %11 = getelementptr inbounds nuw i8, ptr %1, i64 80
  store i64 -1, ptr %11, align 8, !tbaa !10
  %12 = getelementptr inbounds nuw i8, ptr %1, i64 96
  %13 = getelementptr inbounds nuw i8, ptr %1, i64 224
  %14 = load i64, ptr %13, align 8, !tbaa !16
  %15 = getelementptr inbounds nuw i8, ptr %12, i64 %14
  %16 = sub i64 128, %14
  tail call void @llvm.memset.p0.i64(ptr nonnull align 1 %15, i8 0, i64 %16, i1 false)
  %17 = load i64, ptr %13, align 8, !tbaa !16
  tail call fastcc void @blake2b_compress(ptr noundef %1, ptr noundef nonnull %12, i64 noundef %17)
  %18 = icmp sgt i32 %8, 0
  br i1 %18, label %.lr.ph.preheader, label %._crit_edge

.lr.ph.preheader:                                 ; preds = %2
  %wide.trip.count = and i64 %7, 2147483647
  br label %.lr.ph

.lr.ph:                                           ; preds = %.lr.ph.preheader, %.lr.ph
  %indvars.iv = phi i64 [ 0, %.lr.ph.preheader ], [ %indvars.iv.next, %.lr.ph ]
  %19 = shl nuw nsw i64 %indvars.iv, 3
  %20 = getelementptr inbounds nuw i8, ptr %spec.select, i64 %19
  %21 = getelementptr inbounds nuw [8 x i64], ptr %1, i64 0, i64 %indvars.iv
  %22 = load i64, ptr %21, align 8, !tbaa !10
  store i64 %22, ptr %20, align 1
  %indvars.iv.next = add nuw nsw i64 %indvars.iv, 1
  %exitcond.not = icmp eq i64 %indvars.iv.next, %wide.trip.count
  br i1 %exitcond.not, label %._crit_edge, label %.lr.ph, !llvm.loop !19

._crit_edge:                                      ; preds = %.lr.ph, %2
  %.not = icmp eq ptr %spec.select, %0
  br i1 %.not, label %25, label %23

23:                                               ; preds = %._crit_edge
  %24 = load i64, ptr %4, align 8, !tbaa !12
  call void @llvm.memcpy.p0.p0.i64(ptr align 1 %0, ptr align 1 %spec.select, i64 %24, i1 false)
  call void @OPENSSL_cleanse(ptr noundef %spec.select, i64 noundef 64) #9
  br label %25

25:                                               ; preds = %23, %._crit_edge
  call void @OPENSSL_cleanse(ptr noundef nonnull %1, i64 noundef 240) #9
  call void @llvm.lifetime.end.p0(i64 64, ptr nonnull %3) #9
  ret i32 1
}